; ModuleID = '7/25.c'
source_filename = "7/25.c"
target datalayout = "e-m:e-p270:32:32-p271:32:32-p272:64:64-i64:64-f80:128-n8:16:32:64-S128"
target triple = "x86_64-pc-linux-gnu"

@.str = private unnamed_addr constant [2 x i8] c"\0A\00", align 1
@.str.1 = private unnamed_addr constant [4 x i8] c"%s\0A\00", align 1

; Function Attrs: noinline nounwind uwtable
define dso_local void @main() #0 {
  %1 = alloca i32, align 4
  %2 = alloca i32, align 4
  %3 = alloca i32, align 4
  %4 = alloca i32, align 4
  %5 = alloca i32, align 4
  %6 = alloca i32, align 4
  %7 = alloca [256 x i8], align 16
  %8 = alloca [256 x i8], align 16
  %9 = alloca [256 x i8], align 16
  %10 = getelementptr inbounds [256 x i8], [256 x i8]* %7, i64 0, i64 0
  %11 = call i32 (i8*, ...) bitcast (i32 (...)* @gets to i32 (i8*, ...)*)(i8* %10)
  %12 = call i32 (i8*, ...) @__isoc99_scanf(i8* getelementptr inbounds ([2 x i8], [2 x i8]* @.str, i64 0, i64 0))
  %13 = getelementptr inbounds [256 x i8], [256 x i8]* %8, i64 0, i64 0
  %14 = call i32 (i8*, ...) bitcast (i32 (...)* @gets to i32 (i8*, ...)*)(i8* %13)
  %15 = call i32 (i8*, ...) @__isoc99_scanf(i8* getelementptr inbounds ([2 x i8], [2 x i8]* @.str, i64 0, i64 0))
  %16 = getelementptr inbounds [256 x i8], [256 x i8]* %9, i64 0, i64 0
  %17 = call i32 (i8*, ...) bitcast (i32 (...)* @gets to i32 (i8*, ...)*)(i8* %16)
  %18 = getelementptr inbounds [256 x i8], [256 x i8]* %7, i64 0, i64 0
  %19 = call i64 @strlen(i8* %18) #3
  %20 = trunc i64 %19 to i32
  store i32 %20, i32* %3, align 4
  %21 = getelementptr inbounds [256 x i8], [256 x i8]* %8, i64 0, i64 0
  %22 = call i64 @strlen(i8* %21) #3
  %23 = trunc i64 %22 to i32
  store i32 %23, i32* %4, align 4
  %24 = getelementptr inbounds [256 x i8], [256 x i8]* %9, i64 0, i64 0
  %25 = call i64 @strlen(i8* %24) #3
  %26 = trunc i64 %25 to i32
  store i32 %26, i32* %5, align 4
  store i32 0, i32* %1, align 4
  br label %27

27:                                               ; preds = %73, %0
  %28 = load i32, i32* %1, align 4
  %29 = load i32, i32* %3, align 4
  %30 = icmp slt i32 %28, %29
  br i1 %30, label %31, label %76

31:                                               ; preds = %27
  %32 = getelementptr inbounds [256 x i8], [256 x i8]* %8, i64 0, i64 0
  %33 = load i8, i8* %32, align 16
  %34 = sext i8 %33 to i32
  %35 = load i32, i32* %1, align 4
  %36 = sext i32 %35 to i64
  %37 = getelementptr inbounds [256 x i8], [256 x i8]* %7, i64 0, i64 %36
  %38 = load i8, i8* %37, align 1
  %39 = sext i8 %38 to i32
  %40 = icmp eq i32 %34, %39
  br i1 %40, label %41, label %72

41:                                               ; preds = %31
  %42 = load i32, i32* %1, align 4
  store i32 %42, i32* %6, align 4
  store i32 0, i32* %2, align 4
  br label %43

43:                                               ; preds = %61, %41
  %44 = load i32, i32* %2, align 4
  %45 = load i32, i32* %4, align 4
  %46 = icmp slt i32 %44, %45
  br i1 %46, label %47, label %66

47:                                               ; preds = %43
  %48 = load i32, i32* %2, align 4
  %49 = sext i32 %48 to i64
  %50 = getelementptr inbounds [256 x i8], [256 x i8]* %8, i64 0, i64 %49
  %51 = load i8, i8* %50, align 1
  %52 = sext i8 %51 to i32
  %53 = load i32, i32* %6, align 4
  %54 = sext i32 %53 to i64
  %55 = getelementptr inbounds [256 x i8], [256 x i8]* %7, i64 0, i64 %54
  %56 = load i8, i8* %55, align 1
  %57 = sext i8 %56 to i32
  %58 = icmp ne i32 %52, %57
  br i1 %58, label %59, label %60

59:                                               ; preds = %47
  br label %66

60:                                               ; preds = %47
  br label %61

61:                                               ; preds = %60
  %62 = load i32, i32* %2, align 4
  %63 = add nsw i32 %62, 1
  store i32 %63, i32* %2, align 4
  %64 = load i32, i32* %6, align 4
  %65 = add nsw i32 %64, 1
  store i32 %65, i32* %6, align 4
  br label %43

66:                                               ; preds = %59, %43
  %67 = load i32, i32* %2, align 4
  %68 = load i32, i32* %4, align 4
  %69 = icmp slt i32 %67, %68
  br i1 %69, label %70, label %71

70:                                               ; preds = %66
  br label %73

71:                                               ; preds = %66
  br label %76

72:                                               ; preds = %31
  br label %73

73:                                               ; preds = %72, %70
  %74 = load i32, i32* %1, align 4
  %75 = add nsw i32 %74, 1
  store i32 %75, i32* %1, align 4
  br label %27

76:                                               ; preds = %71, %27
  %77 = load i32, i32* %1, align 4
  %78 = load i32, i32* %3, align 4
  %79 = icmp slt i32 %77, %78
  br i1 %79, label %80, label %131

80:                                               ; preds = %76
  %81 = load i32, i32* %1, align 4
  %82 = load i32, i32* %4, align 4
  %83 = add nsw i32 %81, %82
  store i32 %83, i32* %2, align 4
  br label %84

84:                                               ; preds = %104, %80
  %85 = load i32, i32* %2, align 4
  %86 = load i32, i32* %3, align 4
  %87 = load i32, i32* %1, align 4
  %88 = sub nsw i32 %86, %87
  %89 = load i32, i32* %4, align 4
  %90 = sub nsw i32 %88, %89
  %91 = icmp slt i32 %85, %90
  br i1 %91, label %92, label %107

92:                                               ; preds = %84
  %93 = load i32, i32* %2, align 4
  %94 = sext i32 %93 to i64
  %95 = getelementptr inbounds [256 x i8], [256 x i8]* %7, i64 0, i64 %94
  %96 = load i8, i8* %95, align 1
  %97 = load i32, i32* %5, align 4
  %98 = load i32, i32* %2, align 4
  %99 = add nsw i32 %97, %98
  %100 = load i32, i32* %4, align 4
  %101 = sub nsw i32 %99, %100
  %102 = sext i32 %101 to i64
  %103 = getelementptr inbounds [256 x i8], [256 x i8]* %7, i64 0, i64 %102
  store i8 %96, i8* %103, align 1
  br label %104

104:                                              ; preds = %92
  %105 = load i32, i32* %2, align 4
  %106 = add nsw i32 %105, 1
  store i32 %106, i32* %2, align 4
  br label %84

107:                                              ; preds = %84
  %108 = load i32, i32* %1, align 4
  store i32 %108, i32* %2, align 4
  br label %109

109:                                              ; preds = %125, %107
  %110 = load i32, i32* %2, align 4
  %111 = load i32, i32* %1, align 4
  %112 = load i32, i32* %5, align 4
  %113 = add nsw i32 %111, %112
  %114 = icmp slt i32 %110, %113
  br i1 %114, label %115, label %128

115:                                              ; preds = %109
  %116 = load i32, i32* %2, align 4
  %117 = load i32, i32* %1, align 4
  %118 = sub nsw i32 %116, %117
  %119 = sext i32 %118 to i64
  %120 = getelementptr inbounds [256 x i8], [256 x i8]* %9, i64 0, i64 %119
  %121 = load i8, i8* %120, align 1
  %122 = load i32, i32* %2, align 4
  %123 = sext i32 %122 to i64
  %124 = getelementptr inbounds [256 x i8], [256 x i8]* %7, i64 0, i64 %123
  store i8 %121, i8* %124, align 1
  br label %125

125:                                              ; preds = %115
  %126 = load i32, i32* %2, align 4
  %127 = add nsw i32 %126, 1
  store i32 %127, i32* %2, align 4
  br label %109

128:                                              ; preds = %109
  %129 = getelementptr inbounds [256 x i8], [256 x i8]* %7, i64 0, i64 0
  %130 = call i32 (i8*, ...) @printf(i8* getelementptr inbounds ([4 x i8], [4 x i8]* @.str.1, i64 0, i64 0), i8* %129)
  br label %134

131:                                              ; preds = %76
  %132 = getelementptr inbounds [256 x i8], [256 x i8]* %7, i64 0, i64 0
  %133 = call i32 (i8*, ...) @printf(i8* getelementptr inbounds ([4 x i8], [4 x i8]* @.str.1, i64 0, i64 0), i8* %132)
  br label %134

134:                                              ; preds = %131, %128
  ret void
}

declare dso_local i32 @gets(...) #1

declare dso_local i32 @__isoc99_scanf(i8*, ...) #1

; Function Attrs: nounwind readonly
declare dso_local i64 @strlen(i8*) #2

declare dso_local i32 @printf(i8*, ...) #1


!llvm.module.flags = !{!0}
!llvm.ident = !{!1}

!0 = !{i32 1, !"wchar_size", i32 4}
!1 = !{!"clang version 10.0.0-4ubuntu1 "}
